target datalayout = "e-m:e-p270:32:32-p271:32:32-p272:64:64-i64:64-i128:128-f80:128-n8:16:32:64-S128"
target triple = "x86_64-unknown-linux-gnu"

%class.counter = type { %class.u_map }
%class.u_map = type { %class.map }
%class.map = type { %class.table2map }
%class.table2map = type { %class.core_hashtable }
%class.core_hashtable = type <{ ptr, i32, i32, i32, [4 x i8] }>
%struct._key_data = type { i32, i32 }
%class.default_hash_entry = type { i32, i32, %struct._key_data }

; Function Attrs: mustprogress uwtable
define linkonce_odr hidden noundef zeroext i1 @_ZN14core_hashtableI17default_map_entryIjiEN9table2mapIS1_6u_hash4u_eqE15entry_hash_procENS5_13entry_eq_procEE24insert_if_not_there_coreERK9_key_dataIjiERPS1_(ptr noundef nonnull align 8 dereferenceable(20) %this, ptr noundef nonnull align 4 dereferenceable(8) %e, ptr noundef nonnull align 8 dereferenceable(8) %et) #4 comdat align 2 {
entry:
  %this.addr = alloca ptr, align 8
  %e.addr = alloca ptr, align 8
  %et.addr = alloca ptr, align 8
  %temp = alloca %struct._key_data, align 4
  store ptr %this, ptr %this.addr, align 8
  store ptr %e, ptr %e.addr, align 8
  store ptr %et, ptr %et.addr, align 8
  %this1 = load ptr, ptr %this.addr, align 8
  %0 = load ptr, ptr %e.addr, align 8
  call void @llvm.memcpy.p0.p0.i64(ptr align 4 %temp, ptr align 4 %0, i64 8, i1 false)
  %1 = load ptr, ptr %et.addr, align 8
  %call = call noundef zeroext i1 @_ZN14core_hashtableI17default_map_entryIjiEN9table2mapIS1_6u_hash4u_eqE15entry_hash_procENS5_13entry_eq_procEE24insert_if_not_there_coreEO9_key_dataIjiERPS1_(ptr noundef nonnull align 8 dereferenceable(20) %this1, ptr noundef nonnull align 4 dereferenceable(8) %temp, ptr noundef nonnull align 8 dereferenceable(8) %1)
  ret i1 %call
}

; Function Attrs: mustprogress nounwind uwtable
define linkonce_odr hidden noundef nonnull align 4 dereferenceable(8) ptr @_ZN18default_hash_entryI9_key_dataIjiEE8get_dataEv(ptr noundef nonnull align 4 dereferenceable(16) %this) #5 comdat align 2 {
entry:
  %this.addr = alloca ptr, align 8
  store ptr %this, ptr %this.addr, align 8
  %this1 = load ptr, ptr %this.addr, align 8
  %m_data = getelementptr inbounds %class.default_hash_entry, ptr %this1, i32 0, i32 2
  ret ptr %m_data
}

; Function Attrs: mustprogress uwtable
define linkonce_odr hidden noundef ptr @_ZN14core_hashtableI17default_map_entryIjiEN9table2mapIS1_6u_hash4u_eqE15entry_hash_procENS5_13entry_eq_procEE20insert_if_not_there2ERK9_key_dataIjiE(ptr noundef nonnull align 8 dereferenceable(20) %this, ptr noundef nonnull align 4 dereferenceable(8) %e) #4 comdat align 2 {
entry:
  %this.addr = alloca ptr, align 8
  %e.addr = alloca ptr, align 8
  %et = alloca ptr, align 8
  store ptr %this, ptr %this.addr, align 8
  store ptr %e, ptr %e.addr, align 8
  %this1 = load ptr, ptr %this.addr, align 8
  %0 = load ptr, ptr %e.addr, align 8
  %call = call noundef zeroext i1 @_ZN14core_hashtableI17default_map_entryIjiEN9table2mapIS1_6u_hash4u_eqE15entry_hash_procENS5_13entry_eq_procEE24insert_if_not_there_coreERK9_key_dataIjiERPS1_(ptr noundef nonnull align 8 dereferenceable(20) %this1, ptr noundef nonnull align 4 dereferenceable(8) %0, ptr noundef nonnull align 8 dereferenceable(8) %et)
  %1 = load ptr, ptr %et, align 8
  ret ptr %1
}

; Function Attrs: mustprogress nounwind uwtable
define linkonce_odr hidden void @_ZN9_key_dataIjiEC2ERKjRKi(ptr noundef nonnull align 4 dereferenceable(8) %this, ptr noundef nonnull align 4 dereferenceable(4) %k, ptr noundef nonnull align 4 dereferenceable(4) %v) unnamed_addr #5 comdat align 2 {
entry:
  %this.addr = alloca ptr, align 8
  %k.addr = alloca ptr, align 8
  %v.addr = alloca ptr, align 8
  store ptr %this, ptr %this.addr, align 8
  store ptr %k, ptr %k.addr, align 8
  store ptr %v, ptr %v.addr, align 8
  %this1 = load ptr, ptr %this.addr, align 8
  %m_key = getelementptr inbounds %struct._key_data, ptr %this1, i32 0, i32 0
  %0 = load ptr, ptr %k.addr, align 8
  %1 = load i32, ptr %0, align 4
  store i32 %1, ptr %m_key, align 4
  %m_value = getelementptr inbounds %struct._key_data, ptr %this1, i32 0, i32 1
  %2 = load ptr, ptr %v.addr, align 8
  %3 = load i32, ptr %2, align 4
  store i32 %3, ptr %m_value, align 4
  ret void
}

; Function Attrs: mustprogress uwtable
define linkonce_odr hidden noundef nonnull align 4 dereferenceable(4) ptr @_ZN9table2mapI17default_map_entryIjiE6u_hash4u_eqE19insert_if_not_thereERKjRKi(ptr noundef nonnull align 8 dereferenceable(24) %this, ptr noundef nonnull align 4 dereferenceable(4) %k, ptr noundef nonnull align 4 dereferenceable(4) %v) #4 comdat align 2 {
entry:
  %this.addr = alloca ptr, align 8
  %k.addr = alloca ptr, align 8
  %v.addr = alloca ptr, align 8
  %ref.tmp = alloca %struct._key_data, align 4
  store ptr %this, ptr %this.addr, align 8
  store ptr %k, ptr %k.addr, align 8
  store ptr %v, ptr %v.addr, align 8
  %this1 = load ptr, ptr %this.addr, align 8
  %m_table = getelementptr inbounds %class.table2map, ptr %this1, i32 0, i32 0
  %0 = load ptr, ptr %k.addr, align 8
  %1 = load ptr, ptr %v.addr, align 8
  call void @_ZN9_key_dataIjiEC2ERKjRKi(ptr noundef nonnull align 4 dereferenceable(8) %ref.tmp, ptr noundef nonnull align 4 dereferenceable(4) %0, ptr noundef nonnull align 4 dereferenceable(4) %1)
  %call = call noundef ptr @_ZN14core_hashtableI17default_map_entryIjiEN9table2mapIS1_6u_hash4u_eqE15entry_hash_procENS5_13entry_eq_procEE20insert_if_not_there2ERK9_key_dataIjiE(ptr noundef nonnull align 8 dereferenceable(20) %m_table, ptr noundef nonnull align 4 dereferenceable(8) %ref.tmp)
  %call2 = call noundef nonnull align 4 dereferenceable(8) ptr @_ZN18default_hash_entryI9_key_dataIjiEE8get_dataEv(ptr noundef nonnull align 4 dereferenceable(16) %call)
  %m_value = getelementptr inbounds %struct._key_data, ptr %call2, i32 0, i32 1
  ret ptr %m_value
}

; Function Attrs: mustprogress uwtable
define hidden noundef nonnull align 4 dereferenceable(4) ptr @_ZN7counter3getEj(ptr noundef nonnull align 8 dereferenceable(24) %this, i32 noundef %el) #4 align 2 {
entry:
  %this.addr = alloca ptr, align 8
  %el.addr = alloca i32, align 4
  %ref.tmp = alloca i32, align 4
  store ptr %this, ptr %this.addr, align 8
  store i32 %el, ptr %el.addr, align 4
  %this1 = load ptr, ptr %this.addr, align 8
  %m_data = getelementptr inbounds %class.counter, ptr %this1, i32 0, i32 0
  store i32 0, ptr %ref.tmp, align 4
  %call = call noundef nonnull align 4 dereferenceable(4) ptr @_ZN9table2mapI17default_map_entryIjiE6u_hash4u_eqE19insert_if_not_thereERKjRKi(ptr noundef nonnull align 8 dereferenceable(24) %m_data, ptr noundef nonnull align 4 dereferenceable(4) %el.addr, ptr noundef nonnull align 4 dereferenceable(4) %ref.tmp)
  ret ptr %call
}